target datalayout = "e-m:e-p270:32:32-p271:32:32-p272:64:64-i64:64-i128:128-f80:128-n8:16:32:64-S128"
target triple = "x86_64-pc-linux-gnu"

%struct.cli_ctx_tag = type { ptr, ptr, ptr, ptr, ptr, ptr, ptr, i64, ptr, i32, i32, ptr, i32, i32, ptr, [16 x i8], ptr, ptr, ptr, ptr, ptr, ptr, %struct.timeval, i8, i8 }
%struct.timeval = type { i64, i64 }
%struct.msxml_cbdata = type { i32, ptr, ptr, i64, i64, i64 }
%struct.msxml_ctx = type { ptr, ptr, ptr, ptr, ptr }

@.str.46 = private unnamed_addr constant [20 x i8] c"in cli_scanhwpml()\0A\00", align 1
@.str.47 = private unnamed_addr constant [10 x i8] c"hwpml.xml\00", align 1
@.str.48 = private unnamed_addr constant [44 x i8] c"cli_scanhwpml: cannot initialize xmlReader\0A\00", align 1
@.str.49 = private unnamed_addr constant [26 x i8] c"HWPML_ERROR_XML_READER_IO\00", align 1
@num_hwpml_keys = internal global i64 22, align 8

; Function Attrs: nounwind uwtable
define i32 @cli_scanhwpml(ptr noundef %0) #0 {
  %2 = alloca i32, align 4
  %3 = alloca ptr, align 8
  %4 = alloca i32, align 4
  %5 = alloca %struct.msxml_cbdata, align 8
  %6 = alloca %struct.msxml_ctx, align 8
  %7 = alloca ptr, align 8
  %8 = alloca i32, align 4
  store ptr %0, ptr %3, align 8, !tbaa !3
  call void @llvm.lifetime.start.p0(i64 4, ptr %4) #8
  store i32 0, ptr %4, align 4, !tbaa !28
  call void @llvm.lifetime.start.p0(i64 48, ptr %5) #8
  call void @llvm.lifetime.start.p0(i64 40, ptr %6) #8
  call void @llvm.lifetime.start.p0(i64 8, ptr %7) #8
  store ptr null, ptr %7, align 8, !tbaa !91
  call void (ptr, ...) @cli_dbgmsg(ptr noundef @.str.46)
  %9 = load ptr, ptr %3, align 8, !tbaa !3
  %10 = icmp ne ptr %9, null
  br i1 %10, label %12, label %11

11:                                               ; preds = %1
  store i32 2, ptr %2, align 4
  store i32 1, ptr %8, align 4
  br label %36

12:                                               ; preds = %1
  call void @llvm.memset.p0.i64(ptr align 8 %5, i8 0, i64 48, i1 false)
  %13 = load ptr, ptr %3, align 8, !tbaa !3
  %14 = getelementptr inbounds nuw %struct.cli_ctx_tag, ptr %13, i32 0, i32 14
  %15 = load ptr, ptr %14, align 8, !tbaa !8
  %16 = getelementptr inbounds nuw %struct.msxml_cbdata, ptr %5, i32 0, i32 1
  store ptr %15, ptr %16, align 8, !tbaa !93
  %17 = call ptr @xmlReaderForIO(ptr noundef @msxml_read_cb, ptr noundef null, ptr noundef %5, ptr noundef @.str.47, ptr noundef null, i32 noundef 2080)
  store ptr %17, ptr %7, align 8, !tbaa !91
  %18 = load ptr, ptr %7, align 8, !tbaa !91
  %19 = icmp ne ptr %18, null
  br i1 %19, label %26, label %20

20:                                               ; preds = %12
  call void (ptr, ...) @cli_dbgmsg(ptr noundef @.str.48)
  %21 = load ptr, ptr %3, align 8, !tbaa !3
  %22 = getelementptr inbounds nuw %struct.cli_ctx_tag, ptr %21, i32 0, i32 21
  %23 = load ptr, ptr %22, align 8, !tbaa !36
  %24 = call i32 @cli_json_parse_error(ptr noundef %23, ptr noundef @.str.49)
  store i32 %24, ptr %4, align 4, !tbaa !28
  %25 = load i32, ptr %4, align 4, !tbaa !28
  store i32 %25, ptr %2, align 4
  store i32 1, ptr %8, align 4
  br label %36

26:                                               ; preds = %12
  call void @llvm.memset.p0.i64(ptr align 8 %6, i8 0, i64 40, i1 false)
  %27 = getelementptr inbounds nuw %struct.msxml_ctx, ptr %6, i32 0, i32 0
  store ptr @hwpml_binary_cb, ptr %27, align 8, !tbaa !95
  %28 = load ptr, ptr %3, align 8, !tbaa !3
  %29 = load ptr, ptr %7, align 8, !tbaa !91
  %30 = load i64, ptr @num_hwpml_keys, align 8, !tbaa !30
  %31 = call i32 @cli_msxml_parse_document(ptr noundef %28, ptr noundef %29, ptr noundef @hwpml_keys, i64 noundef %30, i32 noundef 1, ptr noundef %6)
  store i32 %31, ptr %4, align 4, !tbaa !28
  %32 = load ptr, ptr %7, align 8, !tbaa !91
  %33 = call i32 @xmlTextReaderClose(ptr noundef %32)
  %34 = load ptr, ptr %7, align 8, !tbaa !91
  call void @xmlFreeTextReader(ptr noundef %34)
  %35 = load i32, ptr %4, align 4, !tbaa !28
  store i32 %35, ptr %2, align 4
  store i32 1, ptr %8, align 4
  br label %36

36:                                               ; preds = %26, %20, %11
  call void @llvm.lifetime.end.p0(i64 8, ptr %7) #8
  call void @llvm.lifetime.end.p0(i64 40, ptr %6) #8
  call void @llvm.lifetime.end.p0(i64 48, ptr %5) #8
  call void @llvm.lifetime.end.p0(i64 4, ptr %4) #8
  %37 = load i32, ptr %2, align 4
  ret i32 %37
}