; Function Attrs: nounwind uwtable
define i32 @cli_scanhwpml(ptr noundef %0) local_unnamed_addr #0 {
  %2 = alloca %struct.msxml_cbdata, align 8
  %3 = alloca %struct.msxml_ctx, align 8
  call void @llvm.lifetime.start.p0(i64 48, ptr nonnull %2) #10
  call void @llvm.lifetime.start.p0(i64 40, ptr nonnull %3) #10
  tail call void (ptr, ...) @cli_dbgmsg(ptr noundef nonnull @.str.46) #10
  %.not = icmp eq ptr %0, null
  br i1 %.not, label %17, label %4

4:                                                ; preds = %1
  call void @llvm.memset.p0.i64(ptr noundef nonnull align 8 dereferenceable(48) %2, i8 0, i64 48, i1 false)
  %5 = getelementptr inbounds nuw i8, ptr %0, i64 96
  %6 = load ptr, ptr %5, align 8, !tbaa !3
  %7 = getelementptr inbounds nuw i8, ptr %2, i64 8
  store ptr %6, ptr %7, align 8, !tbaa !75
  %8 = call ptr @xmlReaderForIO(ptr noundef nonnull @msxml_read_cb, ptr noundef null, ptr noundef nonnull %2, ptr noundef nonnull @.str.47, ptr noundef null, i32 noundef 2080) #10
  %.not12 = icmp eq ptr %8, null
  br i1 %.not12, label %9, label %13

9:                                                ; preds = %4
  call void (ptr, ...) @cli_dbgmsg(ptr noundef nonnull @.str.48) #10
  %10 = getelementptr inbounds nuw i8, ptr %0, i64 160
  %11 = load ptr, ptr %10, align 8, !tbaa !30
  %12 = call i32 @cli_json_parse_error(ptr noundef %11, ptr noundef nonnull @.str.49) #10
  br label %17

13:                                               ; preds = %4
  %14 = getelementptr inbounds nuw i8, ptr %3, i64 8
  call void @llvm.memset.p0.i64(ptr noundef nonnull align 8 dereferenceable(40) %14, i8 0, i64 32, i1 false)
  store ptr @hwpml_binary_cb, ptr %3, align 8, !tbaa !77
  %15 = call i32 @cli_msxml_parse_document(ptr noundef nonnull %0, ptr noundef nonnull %8, ptr noundef nonnull @hwpml_keys, i64 noundef 22, i32 noundef 1, ptr noundef nonnull %3) #10
  %16 = call i32 @xmlTextReaderClose(ptr noundef nonnull %8) #10
  call void @xmlFreeTextReader(ptr noundef nonnull %8) #10
  br label %17

17:                                               ; preds = %1, %13, %9
  %.0 = phi i32 [ %15, %13 ], [ %12, %9 ], [ 2, %1 ]
  call void @llvm.lifetime.end.p0(i64 40, ptr nonnull %3) #10
  call void @llvm.lifetime.end.p0(i64 48, ptr nonnull %2) #10
  ret i32 %.0
}